; Function Attrs: mustprogress nounwind uwtable
define internal void @_ZN12_GLOBAL__N_115TextFileHandler16WriteBundleStartERN4llvm11raw_ostreamENS1_9StringRefE(ptr dead_on_unwind noalias nocapture writable writeonly sret(%"class.llvm::Error") align 8 %0, ptr noundef nonnull align 8 dereferenceable(96) %1, ptr noundef nonnull align 8 dereferenceable(48) %2, ptr %3, i64 %4) unnamed_addr #3 align 2 {
  %6 = getelementptr inbounds nuw i8, ptr %1, i64 24
  %7 = tail call noundef ptr @_ZNKSt7__cxx1112basic_stringIcSt11char_traitsIcESaIcEE4dataEv(ptr noundef nonnull align 8 dereferenceable(32) %6) #24
  %8 = tail call noundef i64 @_ZNKSt7__cxx1112basic_stringIcSt11char_traitsIcESaIcEE6lengthEv(ptr noundef nonnull align 8 dereferenceable(32) %6) #24
  %9 = tail call noundef nonnull align 8 dereferenceable(48) ptr @_ZN4llvm11raw_ostream5writeEPKcm(ptr noundef nonnull align 8 dereferenceable(48) %2, ptr noundef %7, i64 noundef %8) #24
  %10 = getelementptr inbounds nuw i8, ptr %9, i64 24
  %11 = load ptr, ptr %10, align 8
  %12 = getelementptr inbounds nuw i8, ptr %9, i64 32
  %13 = load ptr, ptr %12, align 8
  %14 = ptrtoint ptr %11 to i64
  %15 = ptrtoint ptr %13 to i64
  %16 = sub i64 %14, %15
  %17 = icmp ugt i64 %4, %16
  br i1 %17, label %18, label %20

18:                                               ; preds = %5
  %19 = tail call noundef nonnull align 8 dereferenceable(48) ptr @_ZN4llvm11raw_ostream5writeEPKcm(ptr noundef nonnull align 8 dereferenceable(48) %9, ptr noundef %3, i64 noundef %4) #24
  %.phi.trans.insert = getelementptr inbounds nuw i8, ptr %19, i64 32
  %.pre = load ptr, ptr %.phi.trans.insert, align 8
  br label %_ZN4llvm11raw_ostreamlsENS_9StringRefE.exit

20:                                               ; preds = %5
  %.not.i = icmp eq i64 %4, 0
  br i1 %.not.i, label %_ZN4llvm11raw_ostreamlsENS_9StringRefE.exit, label %21

21:                                               ; preds = %20
  tail call void @llvm.memcpy.p0.p0.i64(ptr align 1 %13, ptr align 1 %3, i64 %4, i1 false)
  %22 = load ptr, ptr %12, align 8
  %23 = getelementptr inbounds i8, ptr %22, i64 %4
  store ptr %23, ptr %12, align 8
  br label %_ZN4llvm11raw_ostreamlsENS_9StringRefE.exit

_ZN4llvm11raw_ostreamlsENS_9StringRefE.exit:      ; preds = %18, %20, %21
  %24 = phi ptr [ %.pre, %18 ], [ %23, %21 ], [ %13, %20 ]
  %.0.i = phi ptr [ %19, %18 ], [ %9, %21 ], [ %9, %20 ]
  %25 = getelementptr inbounds nuw i8, ptr %.0.i, i64 24
  %26 = load ptr, ptr %25, align 8
  %27 = icmp eq ptr %26, %24
  br i1 %27, label %28, label %30

28:                                               ; preds = %_ZN4llvm11raw_ostreamlsENS_9StringRefE.exit
  %29 = tail call noundef nonnull align 8 dereferenceable(48) ptr @_ZN4llvm11raw_ostream5writeEPKcm(ptr noundef nonnull align 8 dereferenceable(48) %.0.i, ptr noundef nonnull @.str.23, i64 noundef 1) #24
  br label %_ZN4llvm12ErrorSuccessD2Ev.exit

30:                                               ; preds = %_ZN4llvm11raw_ostreamlsENS_9StringRefE.exit
  %31 = getelementptr inbounds nuw i8, ptr %.0.i, i64 32
  store i8 10, ptr %24, align 1
  %32 = load ptr, ptr %31, align 8
  %33 = getelementptr inbounds i8, ptr %32, i64 1
  store ptr %33, ptr %31, align 8
  br label %_ZN4llvm12ErrorSuccessD2Ev.exit

_ZN4llvm12ErrorSuccessD2Ev.exit:                  ; preds = %30, %28
  store ptr null, ptr %0, align 8
  ret void
}